target datalayout = "e-m:e-p270:32:32-p271:32:32-p272:64:64-i64:64-i128:128-f80:128-n8:16:32:64-S128"
target triple = "x86_64-pc-linux-gnu"

%struct.Vec_Int_t_ = type { i32, i32, ptr }
%struct.Rsb_Man_t_ = type { i32, i32, i32, i32, ptr, ptr, ptr, ptr, ptr }
%struct.Vec_Wrd_t_ = type { i32, i32, ptr }

; Function Attrs: inlinehint nounwind uwtable
define internal i64 @Abc_Tt6Stretch(i64 noundef %0, i32 noundef %1) #2 {
  %3 = alloca i64, align 8
  %4 = alloca i32, align 4
  store i64 %0, ptr %3, align 8, !tbaa !14
  store i32 %1, ptr %4, align 4, !tbaa !3
  %5 = load i32, ptr %4, align 4, !tbaa !3
  %6 = icmp eq i32 %5, 0
  br i1 %6, label %7, label %16

7:                                                ; preds = %2
  %8 = load i32, ptr %4, align 4, !tbaa !3
  %9 = add nsw i32 %8, 1
  store i32 %9, ptr %4, align 4, !tbaa !3
  %10 = load i64, ptr %3, align 8, !tbaa !14
  %11 = and i64 %10, 1
  %12 = load i64, ptr %3, align 8, !tbaa !14
  %13 = and i64 %12, 1
  %14 = shl i64 %13, 1
  %15 = or i64 %11, %14
  store i64 %15, ptr %3, align 8, !tbaa !14
  br label %16

16:                                               ; preds = %7, %2
  %17 = load i32, ptr %4, align 4, !tbaa !3
  %18 = icmp eq i32 %17, 1
  br i1 %18, label %19, label %28

19:                                               ; preds = %16
  %20 = load i32, ptr %4, align 4, !tbaa !3
  %21 = add nsw i32 %20, 1
  store i32 %21, ptr %4, align 4, !tbaa !3
  %22 = load i64, ptr %3, align 8, !tbaa !14
  %23 = and i64 %22, 3
  %24 = load i64, ptr %3, align 8, !tbaa !14
  %25 = and i64 %24, 3
  %26 = shl i64 %25, 2
  %27 = or i64 %23, %26
  store i64 %27, ptr %3, align 8, !tbaa !14
  br label %28

28:                                               ; preds = %19, %16
  %29 = load i32, ptr %4, align 4, !tbaa !3
  %30 = icmp eq i32 %29, 2
  br i1 %30, label %31, label %40

31:                                               ; preds = %28
  %32 = load i32, ptr %4, align 4, !tbaa !3
  %33 = add nsw i32 %32, 1
  store i32 %33, ptr %4, align 4, !tbaa !3
  %34 = load i64, ptr %3, align 8, !tbaa !14
  %35 = and i64 %34, 15
  %36 = load i64, ptr %3, align 8, !tbaa !14
  %37 = and i64 %36, 15
  %38 = shl i64 %37, 4
  %39 = or i64 %35, %38
  store i64 %39, ptr %3, align 8, !tbaa !14
  br label %40

40:                                               ; preds = %31, %28
  %41 = load i32, ptr %4, align 4, !tbaa !3
  %42 = icmp eq i32 %41, 3
  br i1 %42, label %43, label %52

43:                                               ; preds = %40
  %44 = load i32, ptr %4, align 4, !tbaa !3
  %45 = add nsw i32 %44, 1
  store i32 %45, ptr %4, align 4, !tbaa !3
  %46 = load i64, ptr %3, align 8, !tbaa !14
  %47 = and i64 %46, 255
  %48 = load i64, ptr %3, align 8, !tbaa !14
  %49 = and i64 %48, 255
  %50 = shl i64 %49, 8
  %51 = or i64 %47, %50
  store i64 %51, ptr %3, align 8, !tbaa !14
  br label %52

52:                                               ; preds = %43, %40
  %53 = load i32, ptr %4, align 4, !tbaa !3
  %54 = icmp eq i32 %53, 4
  br i1 %54, label %55, label %64

55:                                               ; preds = %52
  %56 = load i32, ptr %4, align 4, !tbaa !3
  %57 = add nsw i32 %56, 1
  store i32 %57, ptr %4, align 4, !tbaa !3
  %58 = load i64, ptr %3, align 8, !tbaa !14
  %59 = and i64 %58, 65535
  %60 = load i64, ptr %3, align 8, !tbaa !14
  %61 = and i64 %60, 65535
  %62 = shl i64 %61, 16
  %63 = or i64 %59, %62
  store i64 %63, ptr %3, align 8, !tbaa !14
  br label %64

64:                                               ; preds = %55, %52
  %65 = load i32, ptr %4, align 4, !tbaa !3
  %66 = icmp eq i32 %65, 5
  br i1 %66, label %67, label %76

67:                                               ; preds = %64
  %68 = load i32, ptr %4, align 4, !tbaa !3
  %69 = add nsw i32 %68, 1
  store i32 %69, ptr %4, align 4, !tbaa !3
  %70 = load i64, ptr %3, align 8, !tbaa !14
  %71 = and i64 %70, 4294967295
  %72 = load i64, ptr %3, align 8, !tbaa !14
  %73 = and i64 %72, 4294967295
  %74 = shl i64 %73, 32
  %75 = or i64 %71, %74
  store i64 %75, ptr %3, align 8, !tbaa !14
  br label %76

76:                                               ; preds = %67, %64
  %77 = load i64, ptr %3, align 8, !tbaa !14
  ret i64 %77
}

; Function Attrs: inlinehint nounwind uwtable
define internal i32 @Vec_IntSize(ptr noundef %0) #2 {
  %2 = alloca ptr, align 8
  store ptr %0, ptr %2, align 8, !tbaa !20
  %3 = load ptr, ptr %2, align 8, !tbaa !20
  %4 = getelementptr inbounds nuw %struct.Vec_Int_t_, ptr %3, i32 0, i32 1
  %5 = load i32, ptr %4, align 4, !tbaa !40
  ret i32 %5
}

; Function Attrs: inlinehint nounwind uwtable
define internal ptr @Vec_WrdArray(ptr noundef %0) #2 {
  %2 = alloca ptr, align 8
  store ptr %0, ptr %2, align 8, !tbaa !69
  %3 = load ptr, ptr %2, align 8, !tbaa !69
  %4 = getelementptr inbounds nuw %struct.Vec_Wrd_t_, ptr %3, i32 0, i32 2
  %5 = load ptr, ptr %4, align 8, !tbaa !70
  ret ptr %5
}

; Function Attrs: inlinehint nounwind uwtable
define internal ptr @Vec_WrdEntryP(ptr noundef %0, i32 noundef %1) #2 {
  %3 = alloca ptr, align 8
  %4 = alloca i32, align 4
  store ptr %0, ptr %3, align 8, !tbaa !69
  store i32 %1, ptr %4, align 4, !tbaa !3
  %5 = load ptr, ptr %3, align 8, !tbaa !69
  %6 = getelementptr inbounds nuw %struct.Vec_Wrd_t_, ptr %5, i32 0, i32 2
  %7 = load ptr, ptr %6, align 8, !tbaa !70
  %8 = load i32, ptr %4, align 4, !tbaa !3
  %9 = sext i32 %8 to i64
  %10 = getelementptr inbounds i64, ptr %7, i64 %9
  ret ptr %10
}

; Function Attrs: inlinehint nounwind uwtable
define internal i32 @Vec_WrdSize(ptr noundef %0) #2 {
  %2 = alloca ptr, align 8
  store ptr %0, ptr %2, align 8, !tbaa !69
  %3 = load ptr, ptr %2, align 8, !tbaa !69
  %4 = getelementptr inbounds nuw %struct.Vec_Wrd_t_, ptr %3, i32 0, i32 1
  %5 = load i32, ptr %4, align 4, !tbaa !95
  ret i32 %5
}

; Function Attrs: nounwind uwtable
define i32 @Rsb_ManPerformResub6(ptr noundef %0, i32 noundef %1, i64 noundef %2, ptr noundef %3, ptr noundef %4, ptr noundef %5, i32 noundef %6) #0 {
  %8 = alloca i32, align 4
  %9 = alloca ptr, align 8
  %10 = alloca i32, align 4
  %11 = alloca i64, align 8
  %12 = alloca ptr, align 8
  %13 = alloca ptr, align 8
  %14 = alloca ptr, align 8
  %15 = alloca i32, align 4
  %16 = alloca [200 x ptr], align 16
  %17 = alloca i32, align 4
  %18 = alloca i32, align 4
  %19 = alloca i32, align 4
  %20 = alloca i32, align 4
  %21 = alloca i32, align 4
  store ptr %0, ptr %9, align 8, !tbaa !49
  store i32 %1, ptr %10, align 4, !tbaa !3
  store i64 %2, ptr %11, align 8, !tbaa !14
  store ptr %3, ptr %12, align 8, !tbaa !69
  store ptr %4, ptr %13, align 8, !tbaa !7
  store ptr %5, ptr %14, align 8, !tbaa !7
  store i32 %6, ptr %15, align 4, !tbaa !3
  call void @llvm.lifetime.start.p0(i64 1600, ptr %16) #8
  call void @llvm.lifetime.start.p0(i64 4, ptr %17) #8
  call void @llvm.lifetime.start.p0(i64 4, ptr %18) #8
  call void @llvm.lifetime.start.p0(i64 4, ptr %19) #8
  call void @llvm.lifetime.start.p0(i64 4, ptr %20) #8
  %22 = load ptr, ptr %12, align 8, !tbaa !69
  %23 = call i32 @Vec_WrdSize(ptr noundef %22)
  store i32 %23, ptr %20, align 4, !tbaa !3
  store i32 0, ptr %18, align 4, !tbaa !3
  br label %24

24:                                               ; preds = %35, %7
  %25 = load i32, ptr %18, align 4, !tbaa !3
  %26 = load i32, ptr %20, align 4, !tbaa !3
  %27 = icmp slt i32 %25, %26
  br i1 %27, label %28, label %38

28:                                               ; preds = %24
  %29 = load ptr, ptr %12, align 8, !tbaa !69
  %30 = load i32, ptr %18, align 4, !tbaa !3
  %31 = call ptr @Vec_WrdEntryP(ptr noundef %29, i32 noundef %30)
  %32 = load i32, ptr %18, align 4, !tbaa !3
  %33 = sext i32 %32 to i64
  %34 = getelementptr inbounds [200 x ptr], ptr %16, i64 0, i64 %33
  store ptr %31, ptr %34, align 8, !tbaa !7
  br label %35

35:                                               ; preds = %28
  %36 = load i32, ptr %18, align 4, !tbaa !3
  %37 = add nsw i32 %36, 1
  store i32 %37, ptr %18, align 4, !tbaa !3
  br label %24, !llvm.loop !94

38:                                               ; preds = %24
  %39 = load ptr, ptr %9, align 8, !tbaa !49
  %40 = load i32, ptr %10, align 4, !tbaa !3
  %41 = getelementptr inbounds [200 x ptr], ptr %16, i64 0, i64 0
  %42 = load i32, ptr %20, align 4, !tbaa !3
  %43 = load i32, ptr %20, align 4, !tbaa !3
  %44 = call i32 @Rsb_DecPerformInt(ptr noundef %39, i32 noundef %40, ptr noundef %11, ptr noundef %41, i32 noundef %42, i32 noundef %43, i32 noundef 0)
  store i32 %44, ptr %17, align 4, !tbaa !3
  %45 = load i32, ptr %17, align 4, !tbaa !3
  %46 = icmp eq i32 %45, 0
  br i1 %46, label %47, label %48

47:                                               ; preds = %38
  store i32 0, ptr %8, align 4
  store i32 1, ptr %21, align 4
  br label %88

48:                                               ; preds = %38
  %49 = load i32, ptr %15, align 4, !tbaa !3
  %50 = icmp ne i32 %49, 0
  br i1 %50, label %51, label %57

51:                                               ; preds = %48
  %52 = load ptr, ptr %9, align 8, !tbaa !49
  %53 = load i32, ptr %17, align 4, !tbaa !3
  %54 = getelementptr inbounds [200 x ptr], ptr %16, i64 0, i64 0
  %55 = load i32, ptr %20, align 4, !tbaa !3
  %56 = load i32, ptr %10, align 4, !tbaa !3
  call void @Rsb_DecPrintFunc(ptr noundef %52, i32 noundef %53, ptr noundef %11, ptr noundef %54, i32 noundef %55, i32 noundef %56)
  br label %57

57:                                               ; preds = %51, %48
  %58 = load i32, ptr %15, align 4, !tbaa !3
  %59 = icmp ne i32 %58, 0
  br i1 %59, label %60, label %70

60:                                               ; preds = %57
  %61 = load ptr, ptr %9, align 8, !tbaa !49
  %62 = getelementptr inbounds nuw %struct.Rsb_Man_t_, ptr %61, i32 0, i32 4
  %63 = load ptr, ptr %62, align 8, !tbaa !51
  %64 = call ptr @Vec_WrdArray(ptr noundef %63)
  %65 = load i32, ptr %20, align 4, !tbaa !3
  %66 = load i32, ptr %20, align 4, !tbaa !3
  %67 = load ptr, ptr %9, align 8, !tbaa !49
  %68 = getelementptr inbounds nuw %struct.Rsb_Man_t_, ptr %67, i32 0, i32 8
  %69 = load ptr, ptr %68, align 8, !tbaa !55
  call void @Rsb_DecPrintTable(ptr noundef %64, i32 noundef %65, i32 noundef %66, ptr noundef %69)
  br label %70

70:                                               ; preds = %60, %57
  %71 = load ptr, ptr %9, align 8, !tbaa !49
  %72 = getelementptr inbounds nuw %struct.Rsb_Man_t_, ptr %71, i32 0, i32 6
  %73 = load ptr, ptr %72, align 8, !tbaa !56
  %74 = call i32 @Vec_IntSize(ptr noundef %73)
  store i32 %74, ptr %19, align 4, !tbaa !3
  %75 = load i32, ptr %17, align 4, !tbaa !3
  %76 = zext i32 %75 to i64
  %77 = load i32, ptr %19, align 4, !tbaa !3
  %78 = call i64 @Abc_Tt6Stretch(i64 noundef %76, i32 noundef %77)
  %79 = load ptr, ptr %13, align 8, !tbaa !7
  store i64 %78, ptr %79, align 8, !tbaa !14
  %80 = load i32, ptr %17, align 4, !tbaa !3
  %81 = load i32, ptr %19, align 4, !tbaa !3
  %82 = shl i32 1, %81
  %83 = lshr i32 %80, %82
  %84 = zext i32 %83 to i64
  %85 = load i32, ptr %19, align 4, !tbaa !3
  %86 = call i64 @Abc_Tt6Stretch(i64 noundef %84, i32 noundef %85)
  %87 = load ptr, ptr %14, align 8, !tbaa !7
  store i64 %86, ptr %87, align 8, !tbaa !14
  store i32 1, ptr %8, align 4
  store i32 1, ptr %21, align 4
  br label %88

88:                                               ; preds = %70, %47
  call void @llvm.lifetime.end.p0(i64 4, ptr %20) #8
  call void @llvm.lifetime.end.p0(i64 4, ptr %19) #8
  call void @llvm.lifetime.end.p0(i64 4, ptr %18) #8
  call void @llvm.lifetime.end.p0(i64 4, ptr %17) #8
  call void @llvm.lifetime.end.p0(i64 1600, ptr %16) #8
  %89 = load i32, ptr %8, align 4
  ret i32 %89
}