; Function Attrs: nounwind uwtable
define range(i32 0, 2) i32 @Rsb_ManPerformResub6(ptr noundef readonly captures(none) %0, i32 noundef %1, i64 noundef %2, ptr noundef readonly captures(none) %3, ptr noundef writeonly captures(none) %4, ptr noundef writeonly captures(none) %5, i32 noundef %6) local_unnamed_addr #4 {
  %8 = alloca i64, align 8
  %9 = alloca [200 x ptr], align 16
  store i64 %2, ptr %8, align 8, !tbaa !10
  call void @llvm.lifetime.start.p0(i64 1600, ptr nonnull %9) #18
  %10 = getelementptr i8, ptr %3, i64 4
  %.val34 = load i32, ptr %10, align 4, !tbaa !81
  %11 = icmp sgt i32 %.val34, 0
  br i1 %11, label %.lr.ph, label %._crit_edge

.lr.ph:                                           ; preds = %7
  %12 = getelementptr i8, ptr %3, i64 8
  %.val35 = load ptr, ptr %12, align 8, !tbaa !47
  %wide.trip.count = zext nneg i32 %.val34 to i64
  br label %13

13:                                               ; preds = %.lr.ph, %13
  %indvars.iv = phi i64 [ 0, %.lr.ph ], [ %indvars.iv.next, %13 ]
  %14 = getelementptr inbounds nuw i64, ptr %.val35, i64 %indvars.iv
  %15 = getelementptr inbounds nuw [200 x ptr], ptr %9, i64 0, i64 %indvars.iv
  store ptr %14, ptr %15, align 8, !tbaa !7
  %indvars.iv.next = add nuw nsw i64 %indvars.iv, 1
  %exitcond.not = icmp eq i64 %indvars.iv.next, %wide.trip.count
  br i1 %exitcond.not, label %._crit_edge, label %13, !llvm.loop !82

._crit_edge:                                      ; preds = %13, %7
  %16 = call i32 @Rsb_DecPerformInt(ptr noundef %0, i32 noundef %1, ptr noundef nonnull %8, ptr noundef nonnull %9, i32 noundef %.val34, i32 noundef %.val34, i32 noundef 0)
  %17 = icmp eq i32 %16, 0
  br i1 %17, label %63, label %18

18:                                               ; preds = %._crit_edge
  %.not = icmp eq i32 %6, 0
  br i1 %.not, label %.critedge, label %19

19:                                               ; preds = %18
  call void @Rsb_DecPrintFunc(ptr noundef %0, i32 noundef %16, ptr noundef nonnull %8, ptr noundef nonnull %9, i32 noundef %.val34, i32 noundef %1)
  %20 = getelementptr inbounds nuw i8, ptr %0, i64 16
  %21 = load ptr, ptr %20, align 8, !tbaa !43
  %22 = getelementptr i8, ptr %21, i64 8
  %.val33 = load ptr, ptr %22, align 8, !tbaa !47
  %23 = getelementptr inbounds nuw i8, ptr %0, i64 48
  %24 = load ptr, ptr %23, align 8, !tbaa !50
  call void @Rsb_DecPrintTable(ptr noundef %.val33, i32 noundef %.val34, i32 noundef %.val34, ptr noundef %24)
  br label %.critedge

.critedge:                                        ; preds = %18, %19
  %25 = getelementptr inbounds nuw i8, ptr %0, i64 32
  %26 = load ptr, ptr %25, align 8, !tbaa !51
  %27 = getelementptr i8, ptr %26, i64 4
  %.val = load i32, ptr %27, align 4, !tbaa !16
  %28 = zext i32 %16 to i64
  %29 = icmp eq i32 %.val, 0
  %30 = trunc i32 %16 to i1
  %31 = select i1 %30, i64 3, i64 0
  %32 = icmp ult i32 %.val, 2
  %33 = and i64 %28, 3
  %34 = select i1 %29, i64 %31, i64 %33
  %35 = mul nuw nsw i64 %34, 5
  %.126.i = select i1 %32, i64 %35, i64 %28
  %.1.i = call i32 @llvm.umax.i32(i32 %.val, i32 2)
  %36 = icmp ult i32 %.val, 3
  %37 = and i64 %.126.i, 15
  %38 = mul nuw nsw i64 %37, 17
  %.227.i = select i1 %36, i64 %38, i64 %28
  %.2.i = select i1 %36, i32 3, i32 %.1.i
  %39 = icmp eq i32 %.2.i, 3
  %40 = and i64 %.227.i, 255
  %41 = mul nuw nsw i64 %40, 257
  %.328.i = select i1 %39, i64 %41, i64 %.227.i
  %.3.i = select i1 %39, i32 4, i32 %.2.i
  %42 = icmp eq i32 %.3.i, 4
  %43 = and i64 %.328.i, 65535
  %44 = mul nuw nsw i64 %43, 65537
  %.429.i = select i1 %42, i64 %44, i64 %.328.i
  %45 = and i32 %.3.i, -2
  %46 = icmp eq i32 %45, 4
  %47 = mul nuw i64 %.429.i, 4294967297
  %.5.i = select i1 %46, i64 %47, i64 %.429.i
  store i64 %.5.i, ptr %4, align 8, !tbaa !10
  %48 = shl nuw i32 1, %.val
  %49 = lshr i32 %16, %48
  %50 = zext nneg i32 %49 to i64
  %51 = trunc i32 %49 to i1
  %52 = select i1 %51, i64 3, i64 0
  %53 = and i64 %50, 3
  %54 = select i1 %29, i64 %52, i64 %53
  %55 = mul nuw nsw i64 %54, 5
  %.126.i36 = select i1 %32, i64 %55, i64 %50
  %56 = and i64 %.126.i36, 15
  %57 = mul nuw nsw i64 %56, 17
  %.227.i38 = select i1 %36, i64 %57, i64 %50
  %58 = and i64 %.227.i38, 255
  %59 = mul nuw nsw i64 %58, 257
  %.328.i40 = select i1 %39, i64 %59, i64 %.227.i38
  %60 = and i64 %.328.i40, 65535
  %61 = mul nuw nsw i64 %60, 65537
  %.429.i42 = select i1 %42, i64 %61, i64 %.328.i40
  %62 = mul nuw i64 %.429.i42, 4294967297
  %.5.i43 = select i1 %46, i64 %62, i64 %.429.i42
  store i64 %.5.i43, ptr %5, align 8, !tbaa !10
  br label %63

63:                                               ; preds = %._crit_edge, %.critedge
  %.0 = phi i32 [ 1, %.critedge ], [ 0, %._crit_edge ]
  call void @llvm.lifetime.end.p0(i64 1600, ptr nonnull %9) #18
  ret i32 %.0
}